target datalayout = "e-m:e-p270:32:32-p271:32:32-p272:64:64-i64:64-i128:128-f80:128-n8:16:32:64-S128"
target triple = "x86_64-pc-linux-gnu"

@.str = private unnamed_addr constant [30 x i8] c"../openssl/crypto/ui/ui_lib.c\00", align 1

; Function Attrs: nounwind uwtable
define i32 @UI_dup_input_boolean(ptr noundef %0, ptr noundef %1, ptr noundef %2, ptr noundef %3, ptr noundef %4, i32 noundef %5, ptr noundef %6) #0 {
  %8 = alloca i32, align 4
  %9 = alloca ptr, align 8
  %10 = alloca ptr, align 8
  %11 = alloca ptr, align 8
  %12 = alloca ptr, align 8
  %13 = alloca ptr, align 8
  %14 = alloca i32, align 4
  %15 = alloca ptr, align 8
  %16 = alloca ptr, align 8
  %17 = alloca ptr, align 8
  %18 = alloca ptr, align 8
  %19 = alloca ptr, align 8
  %20 = alloca i32, align 4
  store ptr %0, ptr %9, align 8, !tbaa !8
  store ptr %1, ptr %10, align 8, !tbaa !34
  store ptr %2, ptr %11, align 8, !tbaa !34
  store ptr %3, ptr %12, align 8, !tbaa !34
  store ptr %4, ptr %13, align 8, !tbaa !34
  store i32 %5, ptr %14, align 4, !tbaa !35
  store ptr %6, ptr %15, align 8, !tbaa !34
  call void @llvm.lifetime.start.p0(i64 8, ptr %16) #7
  store ptr null, ptr %16, align 8, !tbaa !34
  call void @llvm.lifetime.start.p0(i64 8, ptr %17) #7
  store ptr null, ptr %17, align 8, !tbaa !34
  call void @llvm.lifetime.start.p0(i64 8, ptr %18) #7
  store ptr null, ptr %18, align 8, !tbaa !34
  call void @llvm.lifetime.start.p0(i64 8, ptr %19) #7
  store ptr null, ptr %19, align 8, !tbaa !34
  %21 = load ptr, ptr %10, align 8, !tbaa !34
  %22 = icmp ne ptr %21, null
  br i1 %22, label %23, label %30

23:                                               ; preds = %7
  %24 = load ptr, ptr %10, align 8, !tbaa !34
  %25 = call noalias ptr @CRYPTO_strdup(ptr noundef %24, ptr noundef @.str, i32 noundef 265)
  store ptr %25, ptr %16, align 8, !tbaa !34
  %26 = load ptr, ptr %16, align 8, !tbaa !34
  %27 = icmp eq ptr %26, null
  br i1 %27, label %28, label %29

28:                                               ; preds = %23
  br label %69

29:                                               ; preds = %23
  br label %30

30:                                               ; preds = %29, %7
  %31 = load ptr, ptr %11, align 8, !tbaa !34
  %32 = icmp ne ptr %31, null
  br i1 %32, label %33, label %40

33:                                               ; preds = %30
  %34 = load ptr, ptr %11, align 8, !tbaa !34
  %35 = call noalias ptr @CRYPTO_strdup(ptr noundef %34, ptr noundef @.str, i32 noundef 271)
  store ptr %35, ptr %17, align 8, !tbaa !34
  %36 = load ptr, ptr %17, align 8, !tbaa !34
  %37 = icmp eq ptr %36, null
  br i1 %37, label %38, label %39

38:                                               ; preds = %33
  br label %69

39:                                               ; preds = %33
  br label %40

40:                                               ; preds = %39, %30
  %41 = load ptr, ptr %12, align 8, !tbaa !34
  %42 = icmp ne ptr %41, null
  br i1 %42, label %43, label %50

43:                                               ; preds = %40
  %44 = load ptr, ptr %12, align 8, !tbaa !34
  %45 = call noalias ptr @CRYPTO_strdup(ptr noundef %44, ptr noundef @.str, i32 noundef 277)
  store ptr %45, ptr %18, align 8, !tbaa !34
  %46 = load ptr, ptr %18, align 8, !tbaa !34
  %47 = icmp eq ptr %46, null
  br i1 %47, label %48, label %49

48:                                               ; preds = %43
  br label %69

49:                                               ; preds = %43
  br label %50

50:                                               ; preds = %49, %40
  %51 = load ptr, ptr %13, align 8, !tbaa !34
  %52 = icmp ne ptr %51, null
  br i1 %52, label %53, label %60

53:                                               ; preds = %50
  %54 = load ptr, ptr %13, align 8, !tbaa !34
  %55 = call noalias ptr @CRYPTO_strdup(ptr noundef %54, ptr noundef @.str, i32 noundef 283)
  store ptr %55, ptr %19, align 8, !tbaa !34
  %56 = load ptr, ptr %19, align 8, !tbaa !34
  %57 = icmp eq ptr %56, null
  br i1 %57, label %58, label %59

58:                                               ; preds = %53
  br label %69

59:                                               ; preds = %53
  br label %60

60:                                               ; preds = %59, %50
  %61 = load ptr, ptr %9, align 8, !tbaa !8
  %62 = load ptr, ptr %16, align 8, !tbaa !34
  %63 = load ptr, ptr %17, align 8, !tbaa !34
  %64 = load ptr, ptr %18, align 8, !tbaa !34
  %65 = load ptr, ptr %19, align 8, !tbaa !34
  %66 = load i32, ptr %14, align 4, !tbaa !35
  %67 = load ptr, ptr %15, align 8, !tbaa !34
  %68 = call i32 @general_allocate_boolean(ptr noundef %61, ptr noundef %62, ptr noundef %63, ptr noundef %64, ptr noundef %65, i32 noundef 1, i32 noundef 3, i32 noundef %66, ptr noundef %67)
  store i32 %68, ptr %8, align 4
  store i32 1, ptr %20, align 4
  br label %74

69:                                               ; preds = %58, %48, %38, %28
  %70 = load ptr, ptr %16, align 8, !tbaa !34
  call void @CRYPTO_free(ptr noundef %70, ptr noundef @.str, i32 noundef 292)
  %71 = load ptr, ptr %17, align 8, !tbaa !34
  call void @CRYPTO_free(ptr noundef %71, ptr noundef @.str, i32 noundef 293)
  %72 = load ptr, ptr %18, align 8, !tbaa !34
  call void @CRYPTO_free(ptr noundef %72, ptr noundef @.str, i32 noundef 294)
  %73 = load ptr, ptr %19, align 8, !tbaa !34
  call void @CRYPTO_free(ptr noundef %73, ptr noundef @.str, i32 noundef 295)
  store i32 -1, ptr %8, align 4
  store i32 1, ptr %20, align 4
  br label %74

74:                                               ; preds = %69, %60
  call void @llvm.lifetime.end.p0(i64 8, ptr %19) #7
  call void @llvm.lifetime.end.p0(i64 8, ptr %18) #7
  call void @llvm.lifetime.end.p0(i64 8, ptr %17) #7
  call void @llvm.lifetime.end.p0(i64 8, ptr %16) #7
  %75 = load i32, ptr %8, align 4
  ret i32 %75
}