; Function Attrs: nounwind uwtable
define range(i32 1, 0) i32 @UI_dup_input_boolean(ptr noundef captures(none) %0, ptr noundef %1, ptr noundef %2, ptr noundef %3, ptr noundef %4, i32 noundef %5, ptr noundef %6) local_unnamed_addr #0 {
  %.not = icmp eq ptr %1, null
  br i1 %.not, label %11, label %8

8:                                                ; preds = %7
  %9 = tail call noalias ptr @CRYPTO_strdup(ptr noundef nonnull %1, ptr noundef nonnull @.str, i32 noundef 265) #8
  %10 = icmp eq ptr %9, null
  br i1 %10, label %25, label %11

11:                                               ; preds = %8, %7
  %.027 = phi ptr [ %9, %8 ], [ null, %7 ]
  %.not42 = icmp eq ptr %2, null
  br i1 %.not42, label %15, label %12

12:                                               ; preds = %11
  %13 = tail call noalias ptr @CRYPTO_strdup(ptr noundef nonnull %2, ptr noundef nonnull @.str, i32 noundef 271) #8
  %14 = icmp eq ptr %13, null
  br i1 %14, label %25, label %15

15:                                               ; preds = %12, %11
  %.126 = phi ptr [ %13, %12 ], [ null, %11 ]
  %.not43 = icmp eq ptr %3, null
  br i1 %.not43, label %19, label %16

16:                                               ; preds = %15
  %17 = tail call noalias ptr @CRYPTO_strdup(ptr noundef nonnull %3, ptr noundef nonnull @.str, i32 noundef 277) #8
  %18 = icmp eq ptr %17, null
  br i1 %18, label %25, label %19

19:                                               ; preds = %16, %15
  %.124 = phi ptr [ %17, %16 ], [ null, %15 ]
  %.not44 = icmp eq ptr %4, null
  br i1 %.not44, label %23, label %20

20:                                               ; preds = %19
  %21 = tail call noalias ptr @CRYPTO_strdup(ptr noundef nonnull %4, ptr noundef nonnull @.str, i32 noundef 283) #8
  %22 = icmp eq ptr %21, null
  br i1 %22, label %25, label %23

23:                                               ; preds = %20, %19
  %.1 = phi ptr [ %21, %20 ], [ null, %19 ]
  %24 = tail call fastcc i32 @general_allocate_boolean(ptr noundef %0, ptr noundef %.027, ptr noundef %.126, ptr noundef %.124, ptr noundef %.1, i32 noundef 1, i32 noundef %5, ptr noundef %6)
  br label %26

25:                                               ; preds = %20, %16, %12, %8
  %.128 = phi ptr [ null, %8 ], [ %.027, %12 ], [ %.027, %16 ], [ %.027, %20 ]
  %.025 = phi ptr [ null, %8 ], [ null, %12 ], [ %.126, %16 ], [ %.126, %20 ]
  %.023 = phi ptr [ null, %8 ], [ null, %12 ], [ null, %16 ], [ %.124, %20 ]
  tail call void @CRYPTO_free(ptr noundef %.128, ptr noundef nonnull @.str, i32 noundef 292) #8
  tail call void @CRYPTO_free(ptr noundef %.025, ptr noundef nonnull @.str, i32 noundef 293) #8
  tail call void @CRYPTO_free(ptr noundef %.023, ptr noundef nonnull @.str, i32 noundef 294) #8
  tail call void @CRYPTO_free(ptr noundef null, ptr noundef nonnull @.str, i32 noundef 295) #8
  br label %26

26:                                               ; preds = %25, %23
  %.029 = phi i32 [ -1, %25 ], [ %24, %23 ]
  ret i32 %.029
}